target datalayout = "e-m:e-p270:32:32-p271:32:32-p272:64:64-i64:64-i128:128-f80:128-n8:16:32:64-S128"
target triple = "x86_64-pc-linux-gnu"

%struct.pmix_list_t = type { %struct.pmix_object_t, %struct.pmix_list_item_t, i64 }
%struct.pmix_object_t = type { %union.pthread_mutex_t, ptr, i32, %struct.pmix_tma }
%union.pthread_mutex_t = type { %struct.__pthread_mutex_s }
%struct.__pthread_mutex_s = type { i32, i32, i32, i32, i32, i16, i16, %struct.__pthread_internal_list }
%struct.__pthread_internal_list = type { ptr, ptr }
%struct.pmix_tma = type { ptr, ptr, ptr, ptr, ptr, ptr, ptr, ptr }
%struct.pmix_list_item_t = type { %struct.pmix_object_t, ptr, ptr, i32 }
%struct.pmix_pointer_array_t = type { %struct.pmix_object_t, i32, i32, i32, i32, i32, ptr, ptr }
%struct.pmix_proc = type { [256 x i8], i32 }
%struct.prte_proc_t = type { %struct.pmix_list_item_t, %struct.pmix_proc, i32, i32, i16, i16, i32, i16, i32, i32, i32, i32, ptr, ptr, ptr, ptr, i16, %struct.pmix_list_t }

@prte_local_children = external global ptr, align 8

; Function Attrs: inlinehint nounwind uwtable
define internal ptr @pmix_pointer_array_get_item(ptr noundef %0, i32 noundef %1) #3 {
  %3 = alloca ptr, align 8
  %4 = alloca ptr, align 8
  %5 = alloca i32, align 4
  %6 = alloca ptr, align 8
  %7 = alloca i32, align 4
  store ptr %0, ptr %4, align 8, !tbaa !179
  store i32 %1, ptr %5, align 4, !tbaa !4
  call void @llvm.lifetime.start.p0(i64 8, ptr %6) #12
  %8 = load i32, ptr %5, align 4, !tbaa !4
  %9 = icmp sgt i32 0, %8
  br i1 %9, label %16, label %10

10:                                               ; preds = %2
  %11 = load ptr, ptr %4, align 8, !tbaa !179
  %12 = getelementptr inbounds nuw %struct.pmix_pointer_array_t, ptr %11, i32 0, i32 3
  %13 = load i32, ptr %12, align 8, !tbaa !208
  %14 = load i32, ptr %5, align 4, !tbaa !4
  %15 = icmp sle i32 %13, %14
  br label %16

16:                                               ; preds = %10, %2
  %17 = phi i1 [ true, %2 ], [ %15, %10 ]
  %18 = xor i1 %17, true
  %19 = xor i1 %18, true
  %20 = zext i1 %19 to i32
  %21 = sext i32 %20 to i64
  %22 = call i64 @llvm.expect.i64(i64 %21, i64 0)
  %23 = icmp ne i64 %22, 0
  br i1 %23, label %24, label %25

24:                                               ; preds = %16
  store ptr null, ptr %3, align 8
  store i32 1, ptr %7, align 4
  br label %34

25:                                               ; preds = %16
  %26 = load ptr, ptr %4, align 8, !tbaa !179
  %27 = getelementptr inbounds nuw %struct.pmix_pointer_array_t, ptr %26, i32 0, i32 7
  %28 = load ptr, ptr %27, align 8, !tbaa !209
  %29 = load i32, ptr %5, align 4, !tbaa !4
  %30 = sext i32 %29 to i64
  %31 = getelementptr inbounds ptr, ptr %28, i64 %30
  %32 = load ptr, ptr %31, align 8, !tbaa !30
  store ptr %32, ptr %6, align 8, !tbaa !30
  %33 = load ptr, ptr %6, align 8, !tbaa !30
  store ptr %33, ptr %3, align 8
  store i32 1, ptr %7, align 4
  br label %34

34:                                               ; preds = %25, %24
  call void @llvm.lifetime.end.p0(i64 8, ptr %6) #12
  %35 = load ptr, ptr %3, align 8
  ret ptr %35
}

; Function Attrs: nounwind uwtable
define internal void @surekill() #0 {
  %1 = alloca ptr, align 8
  %2 = alloca i32, align 4
  %3 = alloca i32, align 4
  %4 = alloca i32, align 4
  call void @llvm.lifetime.start.p0(i64 8, ptr %1) #12
  call void @llvm.lifetime.start.p0(i64 4, ptr %2) #12
  call void @llvm.lifetime.start.p0(i64 4, ptr %3) #12
  %5 = load ptr, ptr @prte_local_children, align 8, !tbaa !179
  %6 = icmp ne ptr null, %5
  br i1 %6, label %7, label %44

7:                                                ; preds = %0
  store i32 0, ptr %2, align 4, !tbaa !4
  br label %8

8:                                                ; preds = %40, %7
  %9 = load i32, ptr %2, align 4, !tbaa !4
  %10 = load ptr, ptr @prte_local_children, align 8, !tbaa !179
  %11 = getelementptr inbounds nuw %struct.pmix_pointer_array_t, ptr %10, i32 0, i32 3
  %12 = load i32, ptr %11, align 8, !tbaa !208
  %13 = icmp slt i32 %9, %12
  br i1 %13, label %14, label %43

14:                                               ; preds = %8
  %15 = load ptr, ptr @prte_local_children, align 8, !tbaa !179
  %16 = load i32, ptr %2, align 4, !tbaa !4
  %17 = call ptr @pmix_pointer_array_get_item(ptr noundef %15, i32 noundef %16)
  store ptr %17, ptr %1, align 8, !tbaa !183
  %18 = load ptr, ptr %1, align 8, !tbaa !183
  %19 = icmp ne ptr null, %18
  br i1 %19, label %20, label %39

20:                                               ; preds = %14
  %21 = load ptr, ptr %1, align 8, !tbaa !183
  %22 = getelementptr inbounds nuw %struct.prte_proc_t, ptr %21, i32 0, i32 3
  %23 = load i32, ptr %22, align 8, !tbaa !217
  %24 = icmp slt i32 0, %23
  br i1 %24, label %25, label %39

25:                                               ; preds = %20
  %26 = load ptr, ptr %1, align 8, !tbaa !183
  %27 = getelementptr inbounds nuw %struct.prte_proc_t, ptr %26, i32 0, i32 3
  %28 = load i32, ptr %27, align 8, !tbaa !217
  store i32 %28, ptr %3, align 4, !tbaa !4
  call void @llvm.lifetime.start.p0(i64 4, ptr %4) #12
  %29 = load i32, ptr %3, align 4, !tbaa !4
  %30 = call i32 @getpgid(i32 noundef %29) #12
  store i32 %30, ptr %4, align 4, !tbaa !4
  %31 = load i32, ptr %4, align 4, !tbaa !4
  %32 = icmp ne i32 -1, %31
  br i1 %32, label %33, label %36

33:                                               ; preds = %25
  %34 = load i32, ptr %4, align 4, !tbaa !4
  %35 = sub nsw i32 0, %34
  store i32 %35, ptr %3, align 4, !tbaa !4
  br label %36

36:                                               ; preds = %33, %25
  call void @llvm.lifetime.end.p0(i64 4, ptr %4) #12
  %37 = load i32, ptr %3, align 4, !tbaa !4
  %38 = call i32 @kill(i32 noundef %37, i32 noundef 9) #12
  br label %39

39:                                               ; preds = %36, %20, %14
  br label %40

40:                                               ; preds = %39
  %41 = load i32, ptr %2, align 4, !tbaa !4
  %42 = add nsw i32 %41, 1
  store i32 %42, ptr %2, align 4, !tbaa !4
  br label %8, !llvm.loop !218

43:                                               ; preds = %8
  br label %44

44:                                               ; preds = %43, %0
  call void @llvm.lifetime.end.p0(i64 4, ptr %3) #12
  call void @llvm.lifetime.end.p0(i64 4, ptr %2) #12
  call void @llvm.lifetime.end.p0(i64 8, ptr %1) #12
  ret void
}