; Function Attrs: nounwind uwtable
define internal fastcc void @surekill() unnamed_addr #0 {
  %1 = load ptr, ptr @prte_local_children, align 8, !tbaa !159
  %.not = icmp eq ptr %1, null
  br i1 %.not, label %.loopexit, label %.preheader

.preheader:                                       ; preds = %0
  %2 = getelementptr inbounds nuw i8, ptr %1, i64 128
  %3 = load i32, ptr %2, align 8, !tbaa !90
  %4 = icmp sgt i32 %3, 0
  br i1 %4, label %pmix_pointer_array_get_item.exit, label %.loopexit

pmix_pointer_array_get_item.exit:                 ; preds = %.preheader, %18
  %5 = phi ptr [ %19, %18 ], [ %1, %.preheader ]
  %indvars.iv = phi i64 [ %indvars.iv.next, %18 ], [ 0, %.preheader ]
  %6 = getelementptr inbounds nuw i8, ptr %5, i64 152
  %7 = load ptr, ptr %6, align 8, !tbaa !92
  %8 = getelementptr inbounds nuw ptr, ptr %7, i64 %indvars.iv
  %9 = load ptr, ptr %8, align 8, !tbaa !21
  %.not13 = icmp eq ptr %9, null
  br i1 %.not13, label %18, label %10

10:                                               ; preds = %pmix_pointer_array_get_item.exit
  %11 = getelementptr inbounds nuw i8, ptr %9, i64 408
  %12 = load i32, ptr %11, align 8, !tbaa !187
  %13 = icmp sgt i32 %12, 0
  br i1 %13, label %14, label %18

14:                                               ; preds = %10
  %15 = tail call i32 @getpgid(i32 noundef %12) #23
  %.not14 = icmp eq i32 %15, -1
  %16 = sub nsw i32 0, %15
  %spec.select = select i1 %.not14, i32 %12, i32 %16
  %17 = tail call i32 @kill(i32 noundef %spec.select, i32 noundef 9) #23
  %.pre = load ptr, ptr @prte_local_children, align 8, !tbaa !159
  br label %18

18:                                               ; preds = %pmix_pointer_array_get_item.exit, %10, %14
  %19 = phi ptr [ %5, %pmix_pointer_array_get_item.exit ], [ %5, %10 ], [ %.pre, %14 ]
  %indvars.iv.next = add nuw nsw i64 %indvars.iv, 1
  %20 = getelementptr inbounds nuw i8, ptr %19, i64 128
  %21 = load i32, ptr %20, align 8, !tbaa !90
  %22 = sext i32 %21 to i64
  %23 = icmp slt i64 %indvars.iv.next, %22
  br i1 %23, label %pmix_pointer_array_get_item.exit, label %.loopexit, !llvm.loop !188

.loopexit:                                        ; preds = %18, %.preheader, %0
  ret void
}